; Function Attrs: nounwind uwtable
define internal zeroext i1 @cf_socket_data_pending(ptr noundef readonly captures(none) %0, ptr readnone captures(none) %1) #2 {
  %3 = getelementptr inbounds nuw i8, ptr %0, i64 16
  %4 = load ptr, ptr %3, align 8
  %5 = getelementptr inbounds nuw i8, ptr %4, i64 160
  %6 = tail call zeroext i1 @Curl_bufq_is_empty(ptr noundef nonnull %5) #13
  br i1 %6, label %7, label %15

7:                                                ; preds = %2
  %8 = getelementptr inbounds nuw i8, ptr %4, i64 152
  %9 = load i32, ptr %8, align 8
  %10 = tail call i32 @Curl_socket_check(i32 noundef %9, i32 noundef -1, i32 noundef -1, i64 noundef 0) #13
  %11 = icmp sgt i32 %10, 0
  %12 = and i32 %10, 1
  %13 = icmp ne i32 %12, 0
  %14 = and i1 %11, %13
  br label %15

15:                                               ; preds = %2, %7
  %.0 = phi i1 [ %14, %7 ], [ true, %2 ]
  ret i1 %.0
}